target datalayout = "e-m:e-p270:32:32-p271:32:32-p272:64:64-i64:64-i128:128-f80:128-n8:16:32:64-S128"
target triple = "x86_64-pc-linux-gnu"

%"class.nlohmann::basic_json" = type { i8, %"union.nlohmann::basic_json<>::json_value" }
%"union.nlohmann::basic_json<>::json_value" = type { ptr }
%"class.std::__cxx11::basic_string" = type { %"struct.std::__cxx11::basic_string<char>::_Alloc_hider", i64, %union.anon.23 }
%"struct.std::__cxx11::basic_string<char>::_Alloc_hider" = type { ptr }
%union.anon.23 = type { i64, [8 x i8] }

@.str.6 = private unnamed_addr constant [27 x i8] c"cannot convert %1% to JSON\00", align 1

; Function Attrs: mustprogress uwtable
define linkonce_odr noundef nonnull align 8 dereferenceable(384) ptr @_ZN3nix9EvalState5errorINS_9TypeErrorEJA27_cNSt7__cxx1112basic_stringIcSt11char_traitsIcESaIcEEEEEERNS_16EvalErrorBuilderIT_EEDpRKT0_(ptr noundef nonnull align 8 dereferenceable(1248) %0, ptr noundef nonnull align 1 dereferenceable(27) %1, ptr noundef nonnull align 8 dereferenceable(32) %2) #5 comdat align 2 personality ptr @__gxx_personality_v0 {
  %4 = alloca ptr, align 8
  %5 = alloca ptr, align 8
  %6 = alloca ptr, align 8
  %7 = alloca ptr, align 8
  %8 = alloca i32, align 4
  store ptr %0, ptr %4, align 8
  store ptr %1, ptr %5, align 8
  store ptr %2, ptr %6, align 8
  %9 = load ptr, ptr %4, align 8
  %10 = call noalias noundef nonnull ptr @_Znwm(i64 noundef 384) #25
  %11 = load ptr, ptr %5, align 8
  %12 = load ptr, ptr %6, align 8
  invoke void @_ZN3nix16EvalErrorBuilderINS_9TypeErrorEEC2IJA27_cNSt7__cxx1112basic_stringIcSt11char_traitsIcESaIcEEEEEERNS_9EvalStateEDpRKT_(ptr noundef nonnull align 8 dereferenceable(384) %10, ptr noundef nonnull align 8 dereferenceable(1248) %9, ptr noundef nonnull align 1 dereferenceable(27) %11, ptr noundef nonnull align 8 dereferenceable(32) %12)
          to label %13 unwind label %14

13:                                               ; preds = %3
  ret ptr %10

14:                                               ; preds = %3
  %15 = landingpad { ptr, i32 }
          cleanup
  %16 = extractvalue { ptr, i32 } %15, 0
  store ptr %16, ptr %7, align 8
  %17 = extractvalue { ptr, i32 } %15, 1
  store i32 %17, ptr %8, align 4
  call void @_ZdlPv(ptr noundef %10) #26
  br label %18

18:                                               ; preds = %14
  %19 = load ptr, ptr %7, align 8
  %20 = load i32, ptr %8, align 4
  %21 = insertvalue { ptr, i32 } poison, ptr %19, 0
  %22 = insertvalue { ptr, i32 } %21, i32 %20, 1
  resume { ptr, i32 } %22
}

; Function Attrs: mustprogress uwtable
define void @_ZNK3nix17ExternalValueBase16printValueAsJSONB5cxx11ERNS_9EvalStateEbRSt3setINS_20NixStringContextElemESt4lessIS4_ESaIS4_EEb(ptr dead_on_unwind noalias writable sret(%"class.nlohmann::basic_json") align 8 %0, ptr noundef nonnull align 8 dereferenceable(8) %1, ptr noundef nonnull align 8 dereferenceable(1248) %2, i1 noundef zeroext %3, ptr noundef nonnull align 8 dereferenceable(48) %4, i1 noundef zeroext %5) unnamed_addr #5 align 2 personality ptr @__gxx_personality_v0 {
  %7 = alloca ptr, align 8
  %8 = alloca ptr, align 8
  %9 = alloca ptr, align 8
  %10 = alloca i8, align 1
  %11 = alloca ptr, align 8
  %12 = alloca i8, align 1
  %13 = alloca %"class.std::__cxx11::basic_string", align 8
  %14 = alloca ptr, align 8
  %15 = alloca i32, align 4
  store ptr %0, ptr %7, align 8
  store ptr %1, ptr %8, align 8
  store ptr %2, ptr %9, align 8
  %16 = zext i1 %3 to i8
  store i8 %16, ptr %10, align 1
  store ptr %4, ptr %11, align 8
  %17 = zext i1 %5 to i8
  store i8 %17, ptr %12, align 1
  %18 = load ptr, ptr %8, align 8
  %19 = load ptr, ptr %9, align 8
  %20 = load ptr, ptr %18, align 8
  %21 = getelementptr inbounds ptr, ptr %20, i64 1
  %22 = load ptr, ptr %21, align 8
  call void %22(ptr dead_on_unwind writable sret(%"class.std::__cxx11::basic_string") align 8 %13, ptr noundef nonnull align 8 dereferenceable(8) %18)
  %23 = invoke noundef nonnull align 8 dereferenceable(384) ptr @_ZN3nix9EvalState5errorINS_9TypeErrorEJA27_cNSt7__cxx1112basic_stringIcSt11char_traitsIcESaIcEEEEEERNS_16EvalErrorBuilderIT_EEDpRKT0_(ptr noundef nonnull align 8 dereferenceable(1248) %19, ptr noundef nonnull align 1 dereferenceable(27) @.str.6, ptr noundef nonnull align 8 dereferenceable(32) %13)
          to label %24 unwind label %26

24:                                               ; preds = %6
  invoke void @_ZN3nix16EvalErrorBuilderINS_9TypeErrorEE10debugThrowEv(ptr noundef nonnull align 8 dereferenceable(384) %23) #22
          to label %25 unwind label %26

25:                                               ; preds = %24
  unreachable

26:                                               ; preds = %24, %6
  %27 = landingpad { ptr, i32 }
          cleanup
  %28 = extractvalue { ptr, i32 } %27, 0
  store ptr %28, ptr %14, align 8
  %29 = extractvalue { ptr, i32 } %27, 1
  store i32 %29, ptr %15, align 4
  call void @_ZNSt7__cxx1112basic_stringIcSt11char_traitsIcESaIcEED2Ev(ptr noundef nonnull align 8 dereferenceable(32) %13) #1
  br label %30

30:                                               ; preds = %26
  %31 = load ptr, ptr %14, align 8
  %32 = load i32, ptr %15, align 4
  %33 = insertvalue { ptr, i32 } poison, ptr %31, 0
  %34 = insertvalue { ptr, i32 } %33, i32 %32, 1
  resume { ptr, i32 } %34
}