; Function Attrs: mustprogress noreturn uwtable
define void @_ZNK3nix17ExternalValueBase16printValueAsJSONB5cxx11ERNS_9EvalStateEbRSt3setINS_20NixStringContextElemESt4lessIS4_ESaIS4_EEb(ptr dead_on_unwind noalias nocapture readnone sret(%"class.nlohmann::basic_json") align 8 %0, ptr noundef nonnull align 8 dereferenceable(8) %1, ptr noundef nonnull align 8 dereferenceable(1248) %2, i1 noundef zeroext %3, ptr nocapture noundef nonnull readnone align 8 dereferenceable(48) %4, i1 noundef zeroext %5) unnamed_addr #11 align 2 personality ptr @__gxx_personality_v0 {
  %7 = alloca %"class.std::__cxx11::basic_string", align 8
  %8 = load ptr, ptr %1, align 8
  %9 = getelementptr inbounds i8, ptr %8, i64 8
  %10 = load ptr, ptr %9, align 8
  call void %10(ptr dead_on_unwind nonnull writable sret(%"class.std::__cxx11::basic_string") align 8 %7, ptr noundef nonnull align 8 dereferenceable(8) %1)
  %11 = invoke noalias noundef nonnull dereferenceable(384) ptr @_Znwm(i64 noundef 384) #32
          to label %.noexc unwind label %15

.noexc:                                           ; preds = %6
  invoke void @_ZN3nix16EvalErrorBuilderINS_9TypeErrorEEC2IJA27_cNSt7__cxx1112basic_stringIcSt11char_traitsIcESaIcEEEEEERNS_9EvalStateEDpRKT_(ptr noundef nonnull align 8 dereferenceable(384) %11, ptr noundef nonnull align 8 dereferenceable(1248) %2, ptr noundef nonnull align 1 dereferenceable(27) @.str.6, ptr noundef nonnull align 8 dereferenceable(32) %7)
          to label %_ZN3nix9EvalState5errorINS_9TypeErrorEJA27_cNSt7__cxx1112basic_stringIcSt11char_traitsIcESaIcEEEEEERNS_16EvalErrorBuilderIT_EEDpRKT0_.exit unwind label %12

12:                                               ; preds = %.noexc
  %13 = landingpad { ptr, i32 }
          cleanup
  call void @_ZdlPv(ptr noundef nonnull %11) #33
  br label %.body

_ZN3nix9EvalState5errorINS_9TypeErrorEJA27_cNSt7__cxx1112basic_stringIcSt11char_traitsIcESaIcEEEEEERNS_16EvalErrorBuilderIT_EEDpRKT0_.exit: ; preds = %.noexc
  invoke void @_ZN3nix16EvalErrorBuilderINS_9TypeErrorEE10debugThrowEv(ptr noundef nonnull align 8 dereferenceable(384) %11) #29
          to label %14 unwind label %15

14:                                               ; preds = %_ZN3nix9EvalState5errorINS_9TypeErrorEJA27_cNSt7__cxx1112basic_stringIcSt11char_traitsIcESaIcEEEEEERNS_16EvalErrorBuilderIT_EEDpRKT0_.exit
  unreachable

15:                                               ; preds = %6, %_ZN3nix9EvalState5errorINS_9TypeErrorEJA27_cNSt7__cxx1112basic_stringIcSt11char_traitsIcESaIcEEEEEERNS_16EvalErrorBuilderIT_EEDpRKT0_.exit
  %16 = landingpad { ptr, i32 }
          cleanup
  br label %.body

.body:                                            ; preds = %12, %15
  %eh.lpad-body = phi { ptr, i32 } [ %16, %15 ], [ %13, %12 ]
  call void @_ZNSt7__cxx1112basic_stringIcSt11char_traitsIcESaIcEED2Ev(ptr noundef nonnull align 8 dereferenceable(32) %7) #28
  resume { ptr, i32 } %eh.lpad-body
}